target datalayout = "e-m:e-p270:32:32-p271:32:32-p272:64:64-i64:64-i128:128-f80:128-n8:16:32:64-S128"
target triple = "x86_64-pc-linux-gnu"

%"class.zxing::UnicomBlock" = type { %"class.zxing::Counted.base", i32, i32, i32, i8, %"class.std::vector", %"class.std::vector", %"class.std::vector.0", %"class.std::vector.0", %"class.std::vector.0", %"class.zxing::Ref" }
%"class.zxing::Counted.base" = type <{ ptr, i32 }>
%"class.std::vector" = type { %"struct.std::_Vector_base" }
%"struct.std::_Vector_base" = type { %"struct.std::_Vector_base<unsigned int, std::allocator<unsigned int>>::_Vector_impl" }
%"struct.std::_Vector_base<unsigned int, std::allocator<unsigned int>>::_Vector_impl" = type { %"struct.std::_Vector_base<unsigned int, std::allocator<unsigned int>>::_Vector_impl_data" }
%"struct.std::_Vector_base<unsigned int, std::allocator<unsigned int>>::_Vector_impl_data" = type { ptr, ptr, ptr }
%"class.std::vector.0" = type { %"struct.std::_Vector_base.1" }
%"struct.std::_Vector_base.1" = type { %"struct.std::_Vector_base<int, std::allocator<int>>::_Vector_impl" }
%"struct.std::_Vector_base<int, std::allocator<int>>::_Vector_impl" = type { %"struct.std::_Vector_base<int, std::allocator<int>>::_Vector_impl_data" }
%"struct.std::_Vector_base<int, std::allocator<int>>::_Vector_impl_data" = type { ptr, ptr, ptr }
%"class.zxing::Ref" = type { ptr }

; Function Attrs: mustprogress nounwind uwtable
define linkonce_odr hidden noundef nonnull align 4 dereferenceable(4) ptr @_ZNSt6vectorIjSaIjEEixEm(ptr noundef nonnull align 8 dereferenceable(24) %0, i64 noundef %1) #1 comdat align 2 {
  %3 = alloca ptr, align 8
  %4 = alloca i64, align 8
  store ptr %0, ptr %3, align 8, !tbaa !32
  store i64 %1, ptr %4, align 8, !tbaa !48
  %5 = load ptr, ptr %3, align 8
  %6 = getelementptr inbounds nuw %"struct.std::_Vector_base", ptr %5, i32 0, i32 0
  %7 = getelementptr inbounds nuw %"struct.std::_Vector_base<unsigned int, std::allocator<unsigned int>>::_Vector_impl_data", ptr %6, i32 0, i32 0
  %8 = load ptr, ptr %7, align 8, !tbaa !42
  %9 = load i64, ptr %4, align 8, !tbaa !48
  %10 = getelementptr inbounds nuw i32, ptr %8, i64 %9
  ret ptr %10
}

; Function Attrs: mustprogress uwtable
define hidden noundef zeroext i16 @_ZN5zxing11UnicomBlock19GetUnicomBlockIndexEii(ptr noundef nonnull align 8 dereferenceable(160) %0, i32 noundef %1, i32 noundef %2) #0 align 2 {
  %4 = alloca i16, align 2
  %5 = alloca ptr, align 8
  %6 = alloca i32, align 4
  %7 = alloca i32, align 4
  store ptr %0, ptr %5, align 8, !tbaa !3
  store i32 %1, ptr %6, align 4, !tbaa !8
  store i32 %2, ptr %7, align 4, !tbaa !8
  %8 = load ptr, ptr %5, align 8
  %9 = load i32, ptr %6, align 4, !tbaa !8
  %10 = getelementptr inbounds nuw %"class.zxing::UnicomBlock", ptr %8, i32 0, i32 1
  %11 = load i32, ptr %10, align 4, !tbaa !12
  %12 = icmp sge i32 %9, %11
  br i1 %12, label %18, label %13

13:                                               ; preds = %3
  %14 = load i32, ptr %7, align 4, !tbaa !8
  %15 = getelementptr inbounds nuw %"class.zxing::UnicomBlock", ptr %8, i32 0, i32 2
  %16 = load i32, ptr %15, align 8, !tbaa !27
  %17 = icmp sge i32 %14, %16
  br i1 %17, label %18, label %19

18:                                               ; preds = %13, %3
  store i16 0, ptr %4, align 2
  br label %57

19:                                               ; preds = %13
  %20 = getelementptr inbounds nuw %"class.zxing::UnicomBlock", ptr %8, i32 0, i32 5
  %21 = load i32, ptr %6, align 4, !tbaa !8
  %22 = getelementptr inbounds nuw %"class.zxing::UnicomBlock", ptr %8, i32 0, i32 2
  %23 = load i32, ptr %22, align 8, !tbaa !27
  %24 = mul nsw i32 %21, %23
  %25 = load i32, ptr %7, align 4, !tbaa !8
  %26 = add nsw i32 %24, %25
  %27 = sext i32 %26 to i64
  %28 = call noundef nonnull align 4 dereferenceable(4) ptr @_ZNSt6vectorIjSaIjEEixEm(ptr noundef nonnull align 8 dereferenceable(24) %20, i64 noundef %27) #12
  %29 = load i32, ptr %28, align 4, !tbaa !8
  %30 = icmp ne i32 %29, 0
  br i1 %30, label %31, label %43

31:                                               ; preds = %19
  %32 = getelementptr inbounds nuw %"class.zxing::UnicomBlock", ptr %8, i32 0, i32 5
  %33 = load i32, ptr %6, align 4, !tbaa !8
  %34 = getelementptr inbounds nuw %"class.zxing::UnicomBlock", ptr %8, i32 0, i32 2
  %35 = load i32, ptr %34, align 8, !tbaa !27
  %36 = mul nsw i32 %33, %35
  %37 = load i32, ptr %7, align 4, !tbaa !8
  %38 = add nsw i32 %36, %37
  %39 = sext i32 %38 to i64
  %40 = call noundef nonnull align 4 dereferenceable(4) ptr @_ZNSt6vectorIjSaIjEEixEm(ptr noundef nonnull align 8 dereferenceable(24) %32, i64 noundef %39) #12
  %41 = load i32, ptr %40, align 4, !tbaa !8
  %42 = trunc i32 %41 to i16
  store i16 %42, ptr %4, align 2
  br label %57

43:                                               ; preds = %19
  %44 = load i32, ptr %6, align 4, !tbaa !8
  %45 = load i32, ptr %7, align 4, !tbaa !8
  call void @_ZN5zxing11UnicomBlock3BfsEii(ptr noundef nonnull align 8 dereferenceable(160) %8, i32 noundef %44, i32 noundef %45)
  %46 = getelementptr inbounds nuw %"class.zxing::UnicomBlock", ptr %8, i32 0, i32 5
  %47 = load i32, ptr %6, align 4, !tbaa !8
  %48 = getelementptr inbounds nuw %"class.zxing::UnicomBlock", ptr %8, i32 0, i32 2
  %49 = load i32, ptr %48, align 8, !tbaa !27
  %50 = mul nsw i32 %47, %49
  %51 = load i32, ptr %7, align 4, !tbaa !8
  %52 = add nsw i32 %50, %51
  %53 = sext i32 %52 to i64
  %54 = call noundef nonnull align 4 dereferenceable(4) ptr @_ZNSt6vectorIjSaIjEEixEm(ptr noundef nonnull align 8 dereferenceable(24) %46, i64 noundef %53) #12
  %55 = load i32, ptr %54, align 4, !tbaa !8
  %56 = trunc i32 %55 to i16
  store i16 %56, ptr %4, align 2
  br label %57

57:                                               ; preds = %43, %31, %18
  %58 = load i16, ptr %4, align 2
  ret i16 %58
}