; Function Attrs: mustprogress uwtable
define hidden noundef zeroext i16 @_ZN5zxing11UnicomBlock19GetUnicomBlockIndexEii(ptr noundef nonnull align 8 captures(none) dereferenceable(160) %0, i32 noundef %1, i32 noundef %2) local_unnamed_addr #3 align 2 {
  %4 = getelementptr inbounds nuw i8, ptr %0, i64 12
  %5 = load i32, ptr %4, align 4, !tbaa !10
  %.not = icmp slt i32 %1, %5
  br i1 %.not, label %6, label %28

6:                                                ; preds = %3
  %7 = getelementptr inbounds nuw i8, ptr %0, i64 16
  %8 = load i32, ptr %7, align 8, !tbaa !25
  %.not14 = icmp slt i32 %2, %8
  br i1 %.not14, label %9, label %28

9:                                                ; preds = %6
  %10 = getelementptr inbounds nuw i8, ptr %0, i64 32
  %11 = mul nsw i32 %8, %1
  %12 = add nsw i32 %11, %2
  %13 = sext i32 %12 to i64
  %14 = load ptr, ptr %10, align 8, !tbaa !29
  %15 = getelementptr inbounds nuw i32, ptr %14, i64 %13
  %16 = load i32, ptr %15, align 4, !tbaa !32
  %.not15 = icmp eq i32 %16, 0
  br i1 %.not15, label %19, label %17

17:                                               ; preds = %9
  %18 = trunc i32 %16 to i16
  br label %28

19:                                               ; preds = %9
  tail call void @_ZN5zxing11UnicomBlock3BfsEii(ptr noundef nonnull align 8 dereferenceable(160) %0, i32 noundef %1, i32 noundef %2)
  %20 = load i32, ptr %7, align 8, !tbaa !25
  %21 = mul nsw i32 %20, %1
  %22 = add nsw i32 %21, %2
  %23 = sext i32 %22 to i64
  %24 = load ptr, ptr %10, align 8, !tbaa !29
  %25 = getelementptr inbounds nuw i32, ptr %24, i64 %23
  %26 = load i32, ptr %25, align 4, !tbaa !32
  %27 = trunc i32 %26 to i16
  br label %28

28:                                               ; preds = %3, %6, %19, %17
  %.0 = phi i16 [ %18, %17 ], [ %27, %19 ], [ 0, %6 ], [ 0, %3 ]
  ret i16 %.0
}